Certificate:
    Data:
        Version: 3 (0x2)
        Serial Number: 63 (0x3f)
        Signature Algorithm: sha1WithRSAEncryption
        Issuer: C = US, ST = North Carolina, O = "Red Hat, Inc.", OU = Red Hat Network, CN = Red Hat Entitlement Operations Authority, emailAddress = ca-support@redhat.com
        Validity
            Not Before: Oct 26 20:12:21 2010 GMT
            Not After : Oct 21 20:12:21 2030 GMT
        Subject: C = US, ST = North Carolina, O = "Red Hat, Inc.", OU = Red Hat Network, CN = Red Hat Candlepin Authority, emailAddress = ca-support@redhat.com
        Subject Public Key Info:
            Public Key Algorithm: rsaEncryption
                Public-Key: (4096 bit)
                Modulus:
                    00:b4:6a:0c:08:c8:37:c8:52:9c:98:a7:04:bd:86:
                    3f:a5:87:d1:71:59:b9:2c:e4:09:a4:62:dd:a9:7e:
                    8b:e7:a9:34:3b:e1:c1:dd:39:7b:d6:b3:60:5e:7f:
                    55:2c:e9:4a:ce:50:62:f1:22:29:f4:48:ba:50:77:
                    e7:57:bf:f4:3a:85:bf:dc:8c:ee:0e:a4:ba:ae:7f:
                    f3:1b:78:3b:6c:76:7d:24:87:a0:3b:cb:bd:4e:25:
                    c9:bf:54:01:da:c4:de:7d:e6:8a:05:b6:63:ee:a4:
                    f8:2f:3a:12:91:8f:1b:4e:5c:9d:cc:0b:c5:b6:c0:
                    03:96:70:3c:2d:e7:70:ba:f0:2e:91:88:29:82:45:
                    0a:f1:0e:3b:5b:8a:e5:1f:d4:6c:a2:aa:1b:d5:cc:
                    0d:f5:82:40:d4:02:6a:96:bf:21:da:1e:8b:7c:f6:
                    1f:aa:1c:b3:a6:1c:43:11:94:c8:9c:0b:02:fd:7f:
                    85:af:b6:92:20:11:80:0b:1f:28:ba:1f:8a:84:e5:
                    65:49:57:2e:e0:1a:d6:3f:ce:37:5b:ee:0f:ac:32:
                    83:ee:15:67:a8:41:d7:df:01:57:5e:2b:cd:a5:88:
                    68:56:b0:70:f1:d3:4c:03:31:2f:62:80:2d:0f:3b:
                    4b:94:a7:af:40:b6:62:b4:c9:0d:a2:a4:bd:3d:38:
                    8c:70:c7:cd:7e:50:a8:12:67:40:cc:ea:bc:d3:d7:
                    b3:e1:75:f5:16:11:74:19:ee:c7:6e:c5:c0:dd:94:
                    3a:7c:4e:d5:f2:e2:f6:56:95:d9:d9:45:56:13:02:
                    3f:dc:fb:a8:14:8a:bd:50:0b:45:8f:96:10:15:f0:
                    56:73:48:22:3b:33:b8:5e:8d:18:0e:51:81:2a:35:
                    1d:aa:ce:4b:d4:db:ee:15:b6:1b:99:ba:99:a6:f6:
                    bc:fd:3f:9f:81:42:7e:9f:e3:2d:b9:f2:2e:30:65:
                    28:dc:21:f9:b5:50:35:57:a5:f3:fb:e5:91:0b:ab:
                    c8:cd:1c:63:0a:93:01:58:7e:a7:3a:60:dc:fd:00:
                    09:4f:f7:c7:86:0c:94:22:2e:cf:73:2e:0c:a3:33:
                    fe:45:f0:f9:61:f7:96:a5:0f:17:92:44:1e:e5:1c:
                    08:94:6e:fc:d0:14:8e:06:43:5d:3f:6c:77:d3:e7:
                    43:4d:8e:c2:5e:1e:95:1d:2f:02:78:ff:b5:18:f0:
                    34:99:22:97:a9:9a:1e:86:43:d9:de:9d:20:bd:33:
                    92:58:6a:17:39:37:54:65:86:98:eb:bb:8b:92:0b:
                    c9:89:4b:22:77:ab:b3:ca:ce:29:82:07:d9:e0:ca:
                    eb:47:44:8c:c1:66:27:eb:99:47:9d:d4:ec:29:b4:
                    6f:ca:3b
                Exponent: 65537 (0x10001)
        X509v3 extensions:
            X509v3 Subject Key Identifier: 
                77:2E:A5:CD:37:0D:A8:E1:D3:EA:61:C5:56:67:43:E8:91:C7:6D:1C
            X509v3 Authority Key Identifier: 
                keyid:C4:49:78:56:45:9D:1E:2C:61:60:C3:66:4B:58:05:37:2F:03:22:7B
                DirName:/C=US/ST=North Carolina/L=Raleigh/O=Red Hat, Inc./OU=Red Hat Network/CN=Entitlement Master CA/emailAddress=ca-support@redhat.com
                serial:91:8A:CF:CA:85:00:00:00
            X509v3 Basic Constraints: critical
                CA:TRUE, pathlen:0
    Signature Algorithm: sha1WithRSAEncryption
    Signature Value:
        9e:3f:30:2b:9a:e1:e2:0e:6d:f9:8c:8b:8f:e3:c5:3b:65:ef:
        7b:f4:e1:a1:16:3b:cd:03:e7:5e:6c:eb:25:8f:e8:92:14:fa:
        a1:36:45:ec:12:7d:52:82:c8:12:75:45:e2:40:0e:f0:ca:89:
        4a:62:0b:ea:26:ef:cd:94:25:4f:3e:13:04:30:4e:cb:9e:82:
        3f:88:f0:97:dc:28:30:1a:dd:d4:4e:9b:32:c9:c1:46:0f:23:
        c1:7c:b3:48:28:53:66:20:d8:77:e3:b1:40:c3:62:8a:ca:20:
        f0:00:58:70:37:37:77:a8:93:1f:a3:a3:0a:99:de:e7:9b:bc:
        8e:07:c7:ff:de:87:b2:98:14:2b:16:db:ef:e9:5f:f6:f1:49:
        27:b2:95:23:bf:13:fe:67:30:10:04:51:c8:1d:e8:04:af:59:
        9d:60:0e:ea:cb:92:f3:72:97:a3:50:17:71:53:5a:05:d4:96:
        d9:64:ac:b9:a5:ed:2f:44:b9:0f:55:ec:06:f6:a0:60:f6:3f:
        26:4f:17:e7:8b:26:36:66:42:ec:4b:ac:79:e8:35:04:60:60:
        1b:69:fa:ad:39:1c:d8:ae:c4:6a:51:d9:27:43:67:45:a0:44:
        0b:8b:b7:c6:91:ab:41:2a:6a:3c:4a:5c:96:3d:e9:6f:ab:f8:
        6b:ca:ef:a2:a4:1e:bd:f5:1f:d2:6f:a8:4a:17:59:35:21:11:
        be:6d:ec:11:15:d2:3d:56:b5:05:73:0e:16:b8:10:ea:6e:35:
        8c:12:61:30:e5:f7:6d:5b:62:a3:08:07:ed:93:74:8e:c9:d6:
        22:49:61:33:4f:be:d8:49:c1:61:d6:cf:aa:05:9d:cf:68:0d:
        a7:38:42:72:f7:45:fd:e7:ef:d4:c2:73:4e:b2:93:e3:06:8d:
        38:c5:68:bf:52:52:0f:de:c9:30:82:00:ad:18:79:c5:86:06:
        1c:5c:30:82:f4:04:f7:ab:82:a6:9f:21:1a:68:bf:b6:7f:fb:
        81:e9:b3:c6:e6:6e:04:a9:ba:f5:65:2e:c1:40:9e:2d:ae:9d:
        88:07:30:37:57:03:de:fb:27:4b:af:b5:e6:3a:a2:2b:a6:b0:
        cb:7e:cd:ed:b0:f6:14:d6:49:41:cf:4e:93:ec:d6:99:d6:02:
        3d:d8:b3:c9:b2:10:ef:de:53:d1:f5:79:e4:db:63:5d:1e:c3:
        8e:18:09:d3:3c:23:13:ed:40:be:84:6a:6f:23:85:cf:2a:5e:
        3a:90:b2:58:af:42:bb:25:11:12:1f:ab:a4:38:cb:5c:2b:2b:
        f3:08:8a:9f:45:cc:b5:7d:92:3a:1c:87:87:82:13:66:cf:aa:
        fb:83:a1:07:74:fa:d1:f8
-----BEGIN CERTIFICATE-----
MIIG8zCCBNugAwIBAgIBPzANBgkqhkiG9w0BAQUFADCBsTELMAkGA1UEBhMCVVMx
FzAVBgNVBAgMDk5vcnRoIENhcm9saW5hMRYwFAYDVQQKDA1SZWQgSGF0LCBJbmMu
MRgwFgYDVQQLDA9SZWQgSGF0IE5ldHdvcmsxMTAvBgNVBAMMKFJlZCBIYXQgRW50
aXRsZW1lbnQgT3BlcmF0aW9ucyBBdXRob3JpdHkxJDAiBgkqhkiG9w0BCQEWFWNh
LXN1cHBvcnRAcmVkaGF0LmNvbTAeFw0xMDEwMjYyMDEyMjFaFw0zMDEwMjEyMDEy
MjFaMIGkMQswCQYDVQQGEwJVUzEXMBUGA1UECAwOTm9ydGggQ2Fyb2xpbmExFjAU
BgNVBAoMDVJlZCBIYXQsIEluYy4xGDAWBgNVBAsMD1JlZCBIYXQgTmV0d29yazEk
MCIGA1UEAwwbUmVkIEhhdCBDYW5kbGVwaW4gQXV0aG9yaXR5MSQwIgYJKoZIhvcN
AQkBFhVjYS1zdXBwb3J0QHJlZGhhdC5jb20wggIiMA0GCSqGSIb3DQEBAQUAA4IC
DwAwggIKAoICAQC0agwIyDfIUpyYpwS9hj+lh9FxWbks5AmkYt2pfovnqTQ74cHd
OXvWs2Bef1Us6UrOUGLxIin0SLpQd+dXv/Q6hb/cjO4OpLquf/MbeDtsdn0kh6A7
y71OJcm/VAHaxN595ooFtmPupPgvOhKRjxtOXJ3MC8W2wAOWcDwt53C68C6RiCmC
RQrxDjtbiuUf1GyiqhvVzA31gkDUAmqWvyHaHot89h+qHLOmHEMRlMicCwL9f4Wv
tpIgEYALHyi6H4qE5WVJVy7gGtY/zjdb7g+sMoPuFWeoQdffAVdeK82liGhWsHDx
00wDMS9igC0PO0uUp69AtmK0yQ2ipL09OIxwx81+UKgSZ0DM6rzT17PhdfUWEXQZ
7sduxcDdlDp8TtXy4vZWldnZRVYTAj/c+6gUir1QC0WPlhAV8FZzSCI7M7hejRgO
UYEqNR2qzkvU2+4VthuZupmm9rz9P5+BQn6f4y258i4wZSjcIfm1UDVXpfP75ZEL
q8jNHGMKkwFYfqc6YNz9AAlP98eGDJQiLs9zLgyjM/5F8Plh95alDxeSRB7lHAiU
bvzQFI4GQ10/bHfT50NNjsJeHpUdLwJ4/7UY8DSZIpepmh6GQ9nenSC9M5JYahc5
N1Rlhpjru4uSC8mJSyJ3q7PKzimCB9ngyutHRIzBZifrmUed1OwptG/KOwIDAQAB
o4IBHzCCARswHQYDVR0OBBYEFHcupc03Dajh0+phxVZnQ+iRx20cMIHlBgNVHSME
gd0wgdqAFMRJeFZFnR4sYWDDZktYBTcvAyJ7oYG2pIGzMIGwMQswCQYDVQQGEwJV
UzEXMBUGA1UECAwOTm9ydGggQ2Fyb2xpbmExEDAOBgNVBAcMB1JhbGVpZ2gxFjAU
BgNVBAoMDVJlZCBIYXQsIEluYy4xGDAWBgNVBAsMD1JlZCBIYXQgTmV0d29yazEe
MBwGA1UEAwwVRW50aXRsZW1lbnQgTWFzdGVyIENBMSQwIgYJKoZIhvcNAQkBFhVj
YS1zdXBwb3J0QHJlZGhhdC5jb22CCQCRis/KhQAAADASBgNVHRMBAf8ECDAGAQH/
AgEAMA0GCSqGSIb3DQEBBQUAA4ICAQCePzArmuHiDm35jIuP48U7Ze979OGhFjvN
A+debOslj+iSFPqhNkXsEn1SgsgSdUXiQA7wyolKYgvqJu/NlCVPPhMEME7LnoI/
iPCX3CgwGt3UTpsyycFGDyPBfLNIKFNmINh347FAw2KKyiDwAFhwNzd3qJMfo6MK
md7nm7yOB8f/3oeymBQrFtvv6V/28UknspUjvxP+ZzAQBFHIHegEr1mdYA7qy5Lz
cpejUBdxU1oF1JbZZKy5pe0vRLkPVewG9qBg9j8mTxfniyY2ZkLsS6x56DUEYGAb
afqtORzYrsRqUdknQ2dFoEQLi7fGkatBKmo8SlyWPelvq/hryu+ipB699R/Sb6hK
F1k1IRG+bewRFdI9VrUFcw4WuBDqbjWMEmEw5fdtW2KjCAftk3SOydYiSWEzT77Y
ScFh1s+qBZ3PaA2nOEJy90X95+/UwnNOspPjBo04xWi/UlIP3skwggCtGHnFhgYc
XDCC9AT3q4KmnyEaaL+2f/uB6bPG5m4Eqbr1ZS7BQJ4trp2IBzA3VwPe+ydLr7Xm
OqIrprDLfs3tsPYU1klBz06T7NaZ1gI92LPJshDv3lPR9Xnk22NdHsOOGAnTPCMT
7UC+hGpvI4XPKl46kLJYr0K7JRESH6ukOMtcKyvzCIqfRcy1fZI6HIeHghNmz6r7
g6EHdPrR+A==
-----END CERTIFICATE-----
