Certificate:
    Data:
        Version: 3 (0x2)
        Serial Number: 2661786995734915373 (0x24f0912b7c88a92d)
        Signature Algorithm: sha256WithRSAEncryption
        Issuer: C = US, ST = North Carolina, O = "Red Hat, Inc.", OU = Red Hat Network, CN = Red Hat Candlepin Authority, emailAddress = ca-support@redhat.com
        Validity
            Not Before: Jan 26 14:40:02 2023 GMT
            Not After : Jan 26 15:40:02 2024 GMT
        Subject: O = 16541323, CN = 3ecb23bf-c99b-40ec-bec5-d884a63ddf12
        Subject Public Key Info:
            Public Key Algorithm: rsaEncryption
                Public-Key: (4096 bit)
                Modulus:
                    00:eb:d0:8f:a7:ae:71:f2:74:6b:85:d0:2d:2e:cd:
                    d8:e2:80:6d:a0:e9:25:ca:f2:75:39:d0:9d:37:65:
                    c8:3c:85:6c:d6:bd:8f:dd:8b:7a:c8:d3:87:9e:fd:
                    24:93:28:f4:74:77:42:50:7f:b9:38:33:98:dc:4e:
                    8a:9b:2d:61:91:f3:33:34:4b:6e:02:c9:48:e7:a9:
                    81:f9:8d:9e:4e:5f:63:51:82:49:9c:4c:98:5d:0c:
                    fe:da:11:f3:3b:66:07:91:5b:5b:22:be:9c:4b:72:
                    e5:9e:4b:ef:7c:6d:3d:f1:03:30:c9:60:bb:d7:3b:
                    42:0f:67:56:5c:61:0e:8e:b2:74:3b:6d:29:f7:17:
                    48:d1:5e:6b:c1:2b:02:49:cc:40:7f:90:d9:4d:21:
                    5b:03:4d:0d:37:e7:cb:62:ea:38:20:0a:e5:a5:1b:
                    f0:81:eb:70:bf:cb:11:a3:12:6d:c0:a0:fa:8c:fd:
                    8f:ec:ff:b2:0c:87:6c:22:64:85:4f:a3:f4:df:d8:
                    ee:ca:79:cb:45:f5:fc:bd:fb:cb:75:6e:a7:b0:6c:
                    16:a2:55:fc:bd:2a:9e:84:40:83:76:da:03:71:eb:
                    ec:5e:45:77:6e:1a:c1:ed:d0:4f:f4:3f:24:3a:78:
                    82:7f:e5:d8:c7:90:00:a0:9d:eb:6b:ee:c2:86:04:
                    51:cf:c7:0a:09:cf:a1:8f:80:ee:ad:be:54:ba:60:
                    e7:82:2f:2e:79:db:f6:b7:fa:8d:c0:06:eb:4f:ba:
                    ec:e0:7d:2a:ff:4d:ba:54:e7:bc:f7:19:0b:07:37:
                    1d:42:99:f6:c6:3c:1c:5b:e7:39:2a:46:b9:ae:26:
                    11:28:da:b6:1a:c1:87:e1:f1:36:00:77:0a:a6:a7:
                    37:1a:2b:4e:04:2a:4d:14:71:3a:a2:b0:97:9d:f2:
                    ec:05:24:f2:42:70:09:e0:97:ec:56:3d:7a:dd:35:
                    58:9c:69:7c:c7:81:36:a8:c1:78:3a:01:a8:aa:25:
                    99:5d:60:87:58:55:c5:05:ca:87:b3:d8:fd:4b:a0:
                    40:3f:8e:c2:51:c7:37:55:3c:95:7b:fe:06:f4:94:
                    be:73:f9:50:e4:e0:81:ca:77:1d:b7:fc:5b:0b:a9:
                    55:b2:bf:53:1d:f8:41:4a:83:9e:c7:90:0f:41:64:
                    0c:33:da:d0:40:91:bc:a9:73:3b:a9:dd:d1:38:b1:
                    2c:11:a7:c7:05:7e:50:c6:89:ef:92:cf:6c:52:55:
                    82:ff:60:70:3a:1c:d0:0a:6c:c0:01:df:56:51:8f:
                    86:c5:ed:eb:5d:9f:d7:4b:86:07:65:42:e7:87:c1:
                    65:60:b9:69:2a:4f:c4:d7:39:91:1e:39:59:55:43:
                    94:4c:85
                Exponent: 65537 (0x10001)
        X509v3 extensions:
            X509v3 Key Usage: critical
                Digital Signature, Key Encipherment, Data Encipherment
            X509v3 Extended Key Usage: 
                TLS Web Client Authentication
            X509v3 Basic Constraints: 
                CA:FALSE
            Netscape Cert Type: 
                SSL Client, S/MIME
            X509v3 Subject Key Identifier: 
                9C:07:70:D8:22:A0:6B:92:B7:AF:D1:DF:70:03:D4:C9:F4:E3:FE:64
            X509v3 Authority Key Identifier: 
                77:2E:A5:CD:37:0D:A8:E1:D3:EA:61:C5:56:67:43:E8:91:C7:6D:1C
            X509v3 Subject Alternative Name: 
                DirName:/O=16541323/CN=3ecb23bf-c99b-40ec-bec5-d884a63ddf12, DirName:/CN=ipaclient1.hmsidmcrc.test
    Signature Algorithm: sha256WithRSAEncryption
    Signature Value:
        45:1b:f9:e3:d2:cd:7e:16:51:62:ab:11:6a:41:5a:90:50:2c:
        08:cf:29:be:ed:47:b9:c2:0b:2c:77:14:1c:7f:f5:73:5c:7a:
        1c:e4:af:82:a3:38:91:05:53:ff:7e:e1:14:2c:c6:12:d0:16:
        7e:b7:89:b9:92:5d:de:68:f9:3b:41:93:b2:e4:67:e1:69:ff:
        20:7d:ac:26:83:e6:6e:92:f3:8a:e6:ef:49:aa:94:21:d3:87:
        0a:55:22:3d:d2:57:63:e4:6f:31:b7:3f:19:02:87:8d:7f:f3:
        f4:5d:8b:27:71:30:09:00:86:01:d7:f7:2a:c6:22:89:31:4d:
        7f:0e:d4:03:c6:68:45:05:65:f8:e9:11:69:0f:dd:61:33:81:
        80:b2:fa:09:a4:91:20:91:d2:ac:78:8d:29:c8:a0:23:5a:2a:
        22:c1:cf:a9:fe:16:87:92:ec:e7:7b:7f:aa:95:0e:b7:d4:40:
        dd:6a:f9:6b:c5:9c:77:ea:66:ac:5d:3d:33:25:c5:f5:38:51:
        62:40:55:1b:9c:7c:2a:70:89:d8:54:13:0a:ad:7a:f8:07:e1:
        ce:fb:8f:c2:17:d5:c0:31:29:25:f2:ab:9c:10:dc:2e:41:e2:
        7e:90:8d:d2:dc:01:7a:6c:e6:b4:a2:e5:cd:23:d8:09:14:ea:
        50:0a:6d:3f:6c:84:5c:cd:18:a3:e0:33:2b:a8:e7:91:af:68:
        2f:ea:3f:7f:2d:9a:19:85:bc:ab:5b:11:ce:0b:f6:d6:49:b2:
        9f:70:12:b5:0c:69:28:fc:d8:01:82:c4:06:2b:d5:9e:bc:58:
        49:66:dc:de:5e:3f:9a:92:16:a4:36:22:0e:56:0f:2b:44:e0:
        87:65:65:da:98:ba:6a:02:b6:10:80:f7:73:d9:40:4e:af:23:
        07:0f:e7:c5:e1:05:f7:4b:99:dd:d5:f0:fa:fc:8f:97:fc:4e:
        03:3e:7c:5b:92:e2:6b:d0:a3:29:ab:5c:56:6d:52:36:d8:e2:
        92:07:ca:23:11:02:75:3a:2b:9a:85:9b:0f:73:96:1a:3b:07:
        c1:29:d0:02:f1:79:cc:9b:2e:10:f5:cc:8f:0f:ad:b8:35:9e:
        b8:70:77:b2:60:40:a8:7e:e2:4c:99:df:05:22:fb:a9:d2:ee:
        39:ae:11:9c:f8:ec:29:75:58:31:01:cc:61:92:bf:a9:1f:bf:
        a2:71:66:87:84:40:6e:cc:7d:fd:28:40:87:7c:ab:cc:aa:4a:
        ec:ee:78:b6:2b:72:74:1a:2f:a8:c9:b3:ca:65:8d:7f:62:91:
        52:11:46:5e:1b:37:20:55:8a:b3:3d:48:0b:36:7a:2c:73:e2:
        74:7e:97:f8:30:d9:9a:c9
-----BEGIN CERTIFICATE-----
MIIGaTCCBFGgAwIBAgIIJPCRK3yIqS0wDQYJKoZIhvcNAQELBQAwgaQxCzAJBgNV
BAYTAlVTMRcwFQYDVQQIDA5Ob3J0aCBDYXJvbGluYTEWMBQGA1UECgwNUmVkIEhh
dCwgSW5jLjEYMBYGA1UECwwPUmVkIEhhdCBOZXR3b3JrMSQwIgYDVQQDDBtSZWQg
SGF0IENhbmRsZXBpbiBBdXRob3JpdHkxJDAiBgkqhkiG9w0BCQEWFWNhLXN1cHBv
cnRAcmVkaGF0LmNvbTAeFw0yMzAxMjYxNDQwMDJaFw0yNDAxMjYxNTQwMDJaMEIx
ETAPBgNVBAoMCDE2NTQxMzIzMS0wKwYDVQQDDCQzZWNiMjNiZi1jOTliLTQwZWMt
YmVjNS1kODg0YTYzZGRmMTIwggIiMA0GCSqGSIb3DQEBAQUAA4ICDwAwggIKAoIC
AQDr0I+nrnHydGuF0C0uzdjigG2g6SXK8nU50J03Zcg8hWzWvY/di3rI04ee/SST
KPR0d0JQf7k4M5jcToqbLWGR8zM0S24CyUjnqYH5jZ5OX2NRgkmcTJhdDP7aEfM7
ZgeRW1sivpxLcuWeS+98bT3xAzDJYLvXO0IPZ1ZcYQ6OsnQ7bSn3F0jRXmvBKwJJ
zEB/kNlNIVsDTQ0358ti6jggCuWlG/CB63C/yxGjEm3AoPqM/Y/s/7IMh2wiZIVP
o/Tf2O7KectF9fy9+8t1bqewbBaiVfy9Kp6EQIN22gNx6+xeRXduGsHt0E/0PyQ6
eIJ/5djHkACgnetr7sKGBFHPxwoJz6GPgO6tvlS6YOeCLy552/a3+o3AButPuuzg
fSr/TbpU57z3GQsHNx1CmfbGPBxb5zkqRrmuJhEo2rYawYfh8TYAdwqmpzcaK04E
Kk0UcTqisJed8uwFJPJCcAngl+xWPXrdNVicaXzHgTaowXg6AaiqJZldYIdYVcUF
yoez2P1LoEA/jsJRxzdVPJV7/gb0lL5z+VDk4IHKdx23/FsLqVWyv1Md+EFKg57H
kA9BZAwz2tBAkbypczup3dE4sSwRp8cFflDGie+Sz2xSVYL/YHA6HNAKbMAB31ZR
j4bF7etdn9dLhgdlQueHwWVguWkqT8TXOZEeOVlVQ5RMhQIDAQABo4H/MIH8MA4G
A1UdDwEB/wQEAwIEsDATBgNVHSUEDDAKBggrBgEFBQcDAjAJBgNVHRMEAjAAMBEG
CWCGSAGG+EIBAQQEAwIFoDAdBgNVHQ4EFgQUnAdw2CKga5K3r9HfcAPUyfTj/mQw
HwYDVR0jBBgwFoAUdy6lzTcNqOHT6mHFVmdD6JHHbRwwdwYDVR0RBHAwbqREMEIx
ETAPBgNVBAoMCDE2NTQxMzIzMS0wKwYDVQQDDCQzZWNiMjNiZi1jOTliLTQwZWMt
YmVjNS1kODg0YTYzZGRmMTKkJjAkMSIwIAYDVQQDDBlpcGFjbGllbnQxLmhtc2lk
bWNyYy50ZXN0MA0GCSqGSIb3DQEBCwUAA4ICAQBFG/nj0s1+FlFiqxFqQVqQUCwI
zym+7Ue5wgssdxQcf/VzXHoc5K+CoziRBVP/fuEULMYS0BZ+t4m5kl3eaPk7QZOy
5Gfhaf8gfawmg+ZukvOK5u9JqpQh04cKVSI90ldj5G8xtz8ZAoeNf/P0XYsncTAJ
AIYB1/cqxiKJMU1/DtQDxmhFBWX46RFpD91hM4GAsvoJpJEgkdKseI0pyKAjWioi
wc+p/haHkuzne3+qlQ631EDdavlrxZx36masXT0zJcX1OFFiQFUbnHwqcInYVBMK
rXr4B+HO+4/CF9XAMSkl8qucENwuQeJ+kI3S3AF6bOa0ouXNI9gJFOpQCm0/bIRc
zRij4DMrqOeRr2gv6j9/LZoZhbyrWxHOC/bWSbKfcBK1DGko/NgBgsQGK9WevFhJ
ZtzeXj+akhakNiIOVg8rROCHZWXamLpqArYQgPdz2UBOryMHD+fF4QX3S5nd1fD6
/I+X/E4DPnxbkuJr0KMpq1xWbVI22OKSB8ojEQJ1OiuahZsPc5YaOwfBKdAC8XnM
my4Q9cyPD624NZ64cHeyYECofuJMmd8FIvup0u45rhGc+OwpdVgxAcxhkr+pH7+i
cWaHhEBuzH39KECHfKvMqkrs7ni2K3J0Gi+oybPKZY1/YpFSEUZeGzcgVYqzPUgL
Nnosc+J0fpf4MNmayQ==
-----END CERTIFICATE-----
